BL51 BANKED LINKER/LOCATER V6.22.2.0                                                    03/08/2022  17:35:08  PAGE 1


BL51 BANKED LINKER/LOCATER V6.22.2.0, INVOKED BY:
C:\KEIL_V5\C51\BIN\BL51.EXE .\Objects\STARTUP.obj, .\Objects\main.obj, .\Objects\uart1.obj, .\Objects\spi.obj, .\Objects
>> \oled13.obj, .\Objects\time.obj, .\Objects\oled.obj TO .\Objects\printf-demo PRINT (.\Listings\printf-demo.m51) RAMSI
>> ZE (256)


MEMORY MODEL: SMALL WITH FLOATING POINT ARITHMETIC


INPUT MODULES INCLUDED:
  .\Objects\STARTUP.obj (?C_STARTUP)
  .\Objects\main.obj (MAIN)
  .\Objects\uart1.obj (UART1)
  .\Objects\spi.obj (SPI)
  .\Objects\oled13.obj (OLED13)
  .\Objects\time.obj (TIME)
  .\Objects\oled.obj (OLED)
  C:\KEIL_V5\C51\LIB\C51FPS.LIB (?C?FPADD)
  C:\KEIL_V5\C51\LIB\C51FPS.LIB (?C?FPDIV)
  C:\KEIL_V5\C51\LIB\C51FPS.LIB (?C?FCAST)
  C:\KEIL_V5\C51\LIB\C51FPS.LIB (?C?CASTF)
  C:\KEIL_V5\C51\LIB\C51FPS.LIB (PRINTF)
  C:\KEIL_V5\C51\LIB\C51FPS.LIB (?C?FPGETOPN)
  C:\KEIL_V5\C51\LIB\C51FPS.LIB (?C?FPROUND)
  C:\KEIL_V5\C51\LIB\C51FPS.LIB (?C?FPCONVERT)
  C:\KEIL_V5\C51\LIB\C51FPS.LIB (?C?FPMUL)
  C:\KEIL_V5\C51\LIB\C51FPS.LIB (?C?FTNPWR)
  C:\KEIL_V5\C51\LIB\C51S.LIB (?C_INIT)
  C:\KEIL_V5\C51\LIB\C51S.LIB (?C?CLDPTR)
  C:\KEIL_V5\C51\LIB\C51S.LIB (?C?CLDOPTR)
  C:\KEIL_V5\C51\LIB\C51S.LIB (?C?CSTPTR)
  C:\KEIL_V5\C51\LIB\C51S.LIB (?C?IMUL)
  C:\KEIL_V5\C51\LIB\C51S.LIB (?C?UIDIV)
  C:\KEIL_V5\C51\LIB\C51S.LIB (?C?SIDIV)
  C:\KEIL_V5\C51\LIB\C51S.LIB (?C?LNEG)
  C:\KEIL_V5\C51\LIB\C51S.LIB (?C?ULCMP)
  C:\KEIL_V5\C51\LIB\C51S.LIB (?C?LSHL)
  C:\KEIL_V5\C51\LIB\C51S.LIB (?C?LLDIDATA)
  C:\KEIL_V5\C51\LIB\C51S.LIB (?C?LLDIDATA0)
  C:\KEIL_V5\C51\LIB\C51S.LIB (?C?LSTIDATA)
  C:\KEIL_V5\C51\LIB\C51S.LIB (?C?LSTXDATA)
  C:\KEIL_V5\C51\LIB\C51S.LIB (?C?OFFXADD)
  C:\KEIL_V5\C51\LIB\C51S.LIB (?C?PLDIIDATA)
  C:\KEIL_V5\C51\LIB\C51S.LIB (?C?CCASE)


LINK MAP OF MODULE:  .\Objects\printf-demo (?C_STARTUP)


            TYPE    BASE      LENGTH    RELOCATION   SEGMENT NAME
            -----------------------------------------------------

            * * * * * * *   D A T A   M E M O R Y   * * * * * * *
            REG     0000H     0008H     ABSOLUTE     "REG BANK 0"
            DATA    0008H     0004H     UNIT         ?DT?TICK_TASK?TIME
            DATA    000CH     0001H     UNIT         ?DT?_OLED_DATA?OLED13
            IDATA   000DH     0005H     UNIT         ?ID?TIME
                    0012H     000EH                  *** GAP ***
BL51 BANKED LINKER/LOCATER V6.22.2.0                                                  03/08/2022  17:35:08  PAGE 2


            BIT     0020H.0   0001H.1   UNIT         _BIT_GROUP_
                    0021H.1   0000H.7                *** GAP ***
            DATA    0022H     003AH     UNIT         _DATA_GROUP_
            IDATA   005CH     0001H     UNIT         ?STACK

            * * * * * * *  X D A T A   M E M O R Y  * * * * * * *
            XDATA   0000H     0DD0H     UNIT         ?XD?OLED
            XDATA   0DD0H     0006H     UNIT         ?XD?TIME

            * * * * * * *   C O D E   M E M O R Y   * * * * * * *
            CODE    0000H     0003H     ABSOLUTE     
            CODE    0003H     0008H     UNIT         ?PR?_PUTCHAR?UART1
            CODE    000BH     0003H     ABSOLUTE     
            CODE    000EH     0C49H     UNIT         ?CO?OLED
            CODE    0C57H     09BDH     UNIT         ?C_INITSEG
            CODE    1614H     0699H     UNIT         ?C?LIB_CODE
            CODE    1CADH     046FH     UNIT         ?PR?PRINTF?PRINTF
            CODE    211CH     01FDH     UNIT         ?PR?_OLED_DRAW_CHAR?OLED
            CODE    2319H     01F2H     UNIT         ?PR?OLED_TEST?OLED
            CODE    250BH     0161H     UNIT         ?PR?_OLED_DRAW_LINE?OLED
            CODE    266CH     00E2H     UNIT         ?PR?_OLED_DRAW_FROM_BITMAP?OLED
            CODE    274EH     00D7H     UNIT         ?PR?TICK_TASK?TIME
            CODE    2825H     009AH     UNIT         ?C_C51STARTUP
            CODE    28BFH     009AH     UNIT         ?PR?_OLED_DRAW_YLINE?OLED
            CODE    2959H     008DH     UNIT         ?PR?_OLED_DRAW_RECT?OLED
            CODE    29E6H     0075H     UNIT         ?PR?_OLED_FILL_RECT?OLED
            CODE    2A5BH     005FH     UNIT         ?PR?_OLED_DRAW_XLINE?OLED
            CODE    2ABAH     0055H     UNIT         ?PR?_OLED_SET_PIXEL?OLED
            CODE    2B0FH     004EH     UNIT         ?PR?_OLED_DATAS?OLED13
            CODE    2B5DH     0044H     UNIT         ?PR?_TIME_HOGGINGDELAYUS?TIME
            CODE    2BA1H     003DH     UNIT         ?CO?MAIN
            CODE    2BDEH     003CH     UNIT         ?PR?OLED_SHOW_GRAM?OLED
            CODE    2C1AH     003BH     UNIT         ?PR?OLED_FILL_GRAM?OLED
            CODE    2C55H     003AH     UNIT         ?PR?OLED_CLEAR_GRAM?OLED
            CODE    2C8FH     002BH     UNIT         ?PR?OLED_INIT?OLED13
            CODE    2CBAH     0022H     UNIT         ?PR?INITSTC8A?MAIN
            CODE    2CDCH     0021H     UNIT         ?PR?MAIN?MAIN
            CODE    2CFDH     001CH     UNIT         ?PR?_ABS?OLED
            CODE    2D19H     001BH     UNIT         ?PR?TIMER0_ISR?TIME
            CODE    2D34H     0017H     UNIT         ?PR?UART1_INITIALIZATION?UART1
            CODE    2D4BH     0016H     UNIT         ?PR?_OLED_COMMAND?OLED13
            CODE    2D61H     0016H     UNIT         ?PR?_OLED_DATA?OLED13
            CODE    2D77H     0013H     UNIT         ?PR?_TIME_HOGGINGDELAYMS?TIME
            CODE    2D8AH     0012H     UNIT         ?PR?TIME_INITIALIZATION?TIME
            CODE    2D9CH     000FH     UNIT         ?PR?_SPI_INIT?SPI
            CODE    2DABH     000FH     UNIT         ?PR?TIME_GETTICKS?TIME
            CODE    2DBAH     000EH     UNIT         ?PR?_SPI_RW?SPI
            CODE    2DC8H     000AH     UNIT         ?PR?DELAY1MS?TIME
            CODE    2DD2H     0009H     UNIT         ?PR?DELAY100US?TIME
            CODE    2DDBH     0005H     UNIT         ?PR?OLED_DISPLAY_ALL?OLED13
            CODE    2DE0H     0005H     UNIT         ?PR?DELAY1US?TIME
            CODE    2DE5H     0005H     UNIT         ?PR?DELAY10US?TIME
            CODE    2DEAH     0003H     UNIT         ?PR?SPI_ENABLE?SPI
            CODE    2DEDH     0003H     UNIT         ?PR?SPI_DISABLE?SPI
            CODE    2DF0H     0003H     UNIT         ?PR?_OLED_WRITE_PAGE?OLED13
            CODE    2DF3H     0003H     UNIT         ?PR?_OLED_DRAW_POINT?OLED

BL51 BANKED LINKER/LOCATER V6.22.2.0                                                  03/08/2022  17:35:08  PAGE 3




OVERLAY MAP OF MODULE:   .\Objects\printf-demo (?C_STARTUP)


SEGMENT                                    BIT_GROUP          DATA_GROUP 
  +--> CALLED SEGMENT                   START    LENGTH     START    LENGTH
---------------------------------------------------------------------------
?C_C51STARTUP                           -----    -----      -----    -----
  +--> ?PR?MAIN?MAIN
  +--> ?C_INITSEG

?PR?MAIN?MAIN                           -----    -----      0022H    0004H
  +--> ?PR?INITSTC8A?MAIN
  +--> ?PR?UART1_INITIALIZATION?UART1
  +--> ?PR?_SPI_INIT?SPI
  +--> ?PR?OLED_INIT?OLED13
  +--> ?PR?OLED_TEST?OLED
  +--> ?CO?MAIN
  +--> ?PR?PRINTF?PRINTF
  +--> ?PR?_TIME_HOGGINGDELAYMS?TIME

?PR?OLED_INIT?OLED13                    -----    -----      -----    -----
  +--> ?PR?_TIME_HOGGINGDELAYMS?TIME
  +--> ?PR?_OLED_COMMAND?OLED13

?PR?_TIME_HOGGINGDELAYMS?TIME           -----    -----      -----    -----
  +--> ?PR?DELAY1MS?TIME

?PR?_OLED_COMMAND?OLED13                -----    -----      0028H    0001H
  +--> ?PR?SPI_ENABLE?SPI
  +--> ?PR?_SPI_RW?SPI
  +--> ?PR?SPI_DISABLE?SPI
  +--> ?PR?_TIME_HOGGINGDELAYUS?TIME

?PR?_TIME_HOGGINGDELAYUS?TIME           -----    -----      -----    -----
  +--> ?PR?DELAY100US?TIME
  +--> ?PR?DELAY10US?TIME
  +--> ?PR?DELAY1US?TIME

?PR?OLED_TEST?OLED                      -----    -----      -----    -----
  +--> ?PR?_TIME_HOGGINGDELAYMS?TIME
  +--> ?PR?OLED_CLEAR_GRAM?OLED
  +--> ?PR?OLED_FILL_GRAM?OLED
  +--> ?PR?OLED_SHOW_GRAM?OLED
  +--> ?PR?_OLED_DRAW_XLINE?OLED
  +--> ?PR?_OLED_DRAW_YLINE?OLED
  +--> ?PR?_OLED_DRAW_LINE?OLED
  +--> ?PR?_OLED_DRAW_RECT?OLED
  +--> ?PR?_OLED_FILL_RECT?OLED
  +--> ?CO?OLED
  +--> ?PR?_OLED_DRAW_FROM_BITMAP?OLED
  +--> ?PR?_OLED_DRAW_CHAR?OLED

?PR?OLED_SHOW_GRAM?OLED                 -----    -----      0026H    0002H
  +--> ?PR?_OLED_COMMAND?OLED13
  +--> ?PR?_OLED_WRITE_PAGE?OLED13
BL51 BANKED LINKER/LOCATER V6.22.2.0                                                  03/08/2022  17:35:08  PAGE 4



?PR?_OLED_WRITE_PAGE?OLED13             -----    -----      -----    -----
  +--> ?PR?_OLED_DATAS?OLED13

?PR?_OLED_DATAS?OLED13                  -----    -----      0028H    0007H
  +--> ?PR?SPI_ENABLE?SPI
  +--> ?PR?_SPI_RW?SPI
  +--> ?PR?SPI_DISABLE?SPI
  +--> ?PR?_TIME_HOGGINGDELAYUS?TIME

?PR?_OLED_DRAW_XLINE?OLED               -----    -----      002BH    0004H
  +--> ?CO?OLED
  +--> ?PR?PRINTF?PRINTF
  +--> ?PR?_OLED_DRAW_POINT?OLED

?PR?PRINTF?PRINTF                       0020H.0  0001H.1    0040H    001CH
  +--> ?PR?_PUTCHAR?UART1

?PR?_OLED_DRAW_POINT?OLED               -----    -----      -----    -----
  +--> ?PR?_OLED_SET_PIXEL?OLED

?PR?_OLED_SET_PIXEL?OLED                -----    -----      003EH    0002H
  +--> ?CO?OLED
  +--> ?PR?PRINTF?PRINTF

?PR?_OLED_DRAW_YLINE?OLED               -----    -----      002AH    0004H
  +--> ?CO?OLED
  +--> ?PR?PRINTF?PRINTF
  +--> ?PR?_OLED_DRAW_POINT?OLED

?PR?_OLED_DRAW_LINE?OLED                -----    -----      0026H    0018H
  +--> ?CO?OLED
  +--> ?PR?PRINTF?PRINTF
  +--> ?PR?_ABS?OLED
  +--> ?PR?_OLED_DRAW_POINT?OLED

?PR?_OLED_DRAW_RECT?OLED                -----    -----      0026H    0004H
  +--> ?CO?OLED
  +--> ?PR?PRINTF?PRINTF
  +--> ?PR?_OLED_DRAW_XLINE?OLED
  +--> ?PR?_OLED_DRAW_YLINE?OLED

?PR?_OLED_FILL_RECT?OLED                -----    -----      0026H    0005H
  +--> ?CO?OLED
  +--> ?PR?PRINTF?PRINTF
  +--> ?PR?_OLED_DRAW_XLINE?OLED

?PR?_OLED_DRAW_FROM_BITMAP?OLED         -----    -----      0026H    000CH
  +--> ?CO?OLED
  +--> ?PR?PRINTF?PRINTF
  +--> ?PR?_OLED_DRAW_POINT?OLED

?PR?_OLED_DRAW_CHAR?OLED                -----    -----      0026H    0016H
  +--> ?CO?OLED
  +--> ?PR?PRINTF?PRINTF
  +--> ?PR?_OLED_DRAW_POINT?OLED

BL51 BANKED LINKER/LOCATER V6.22.2.0                                                  03/08/2022  17:35:08  PAGE 5




SYMBOL TABLE OF MODULE:  .\Objects\printf-demo (?C_STARTUP)

  VALUE           TYPE          NAME
  ----------------------------------

  -------         MODULE        ?C_STARTUP
  C:2825H         SEGMENT       ?C_C51STARTUP
  I:005CH         SEGMENT       ?STACK
  C:0000H         PUBLIC        ?C_STARTUP
  D:00E0H         SYMBOL        ACC
  D:00F0H         SYMBOL        B
  D:0083H         SYMBOL        DPH
  D:0082H         SYMBOL        DPL
  N:0000H         SYMBOL        IBPSTACK
  N:0100H         SYMBOL        IBPSTACKTOP
  N:0100H         SYMBOL        IDATALEN
  C:2828H         SYMBOL        IDATALOOP
  N:0000H         SYMBOL        PBPSTACK
  N:0100H         SYMBOL        PBPSTACKTOP
  N:0000H         SYMBOL        PDATALEN
  N:0000H         SYMBOL        PDATASTART
  N:0000H         SYMBOL        PPAGE
  N:0000H         SYMBOL        PPAGEENABLE
  D:00A0H         SYMBOL        PPAGE_SFR
  D:0081H         SYMBOL        SP
  C:2825H         SYMBOL        STARTUP1
  N:0000H         SYMBOL        XBPSTACK
  N:0000H         SYMBOL        XBPSTACKTOP
  N:2000H         SYMBOL        XDATALEN
  C:2833H         SYMBOL        XDATALOOP
  N:0000H         SYMBOL        XDATASTART
  C:0000H         LINE#         126
  C:2825H         LINE#         133
  C:2827H         LINE#         134
  C:2828H         LINE#         135
  C:2829H         LINE#         136
  C:282BH         LINE#         140
  C:282EH         LINE#         141
  C:2830H         LINE#         145
  C:2832H         LINE#         147
  C:2833H         LINE#         148
  C:2834H         LINE#         149
  C:2835H         LINE#         150
  C:2837H         LINE#         151
  C:2839H         LINE#         185
  C:283CH         LINE#         196
  -------         ENDMOD        ?C_STARTUP

  -------         MODULE        MAIN
  C:0000H         SYMBOL        _ICE_DUMMY_
  D:0092H         PUBLIC        P1M0
  D:0093H         PUBLIC        P0M1
  D:0096H         PUBLIC        P2M0
  D:0091H         PUBLIC        P1M1
  D:0080H         PUBLIC        P0
BL51 BANKED LINKER/LOCATER V6.22.2.0                                                  03/08/2022  17:35:08  PAGE 6


  D:00B2H         PUBLIC        P3M0
  D:0095H         PUBLIC        P2M1
  D:0090H         PUBLIC        P1
  D:00B4H         PUBLIC        P4M0
  D:00B1H         PUBLIC        P3M1
  D:00A0H         PUBLIC        P2
  D:00CAH         PUBLIC        P5M0
  D:00B3H         PUBLIC        P4M1
  D:00B0H         PUBLIC        P3
  D:00CCH         PUBLIC        P6M0
  D:00C9H         PUBLIC        P5M1
  D:00C0H         PUBLIC        P4
  D:00E2H         PUBLIC        P7M0
  D:00CBH         PUBLIC        P6M1
  D:00C8H         PUBLIC        P5
  D:00E1H         PUBLIC        P7M1
  D:00E8H         PUBLIC        P6
  D:00F8H         PUBLIC        P7
  D:00A8H         PUBLIC        IE
  D:00B8H         PUBLIC        IP
  D:00D8H         PUBLIC        CCON
  C:2CDCH         PUBLIC        main
  D:0098H         PUBLIC        SCON
  D:0088H         PUBLIC        TCON
  C:2BBCH         PUBLIC        line0
  C:2BCDH         PUBLIC        line1
  D:00D0H         PUBLIC        PSW
  C:2CBAH         SYMBOL        InitSTC8A
  D:0094H         PUBLIC        P0M0
  -------         PROC          INITSTC8A
  C:2CBAH         LINE#         15
  C:2CBAH         LINE#         16
  C:2CBAH         LINE#         17
  C:2CBDH         LINE#         18
  C:2CBFH         LINE#         19
  C:2CC1H         LINE#         20
  C:2CC3H         LINE#         21
  C:2CC5H         LINE#         22
  C:2CC7H         LINE#         23
  C:2CC9H         LINE#         24
  C:2CCBH         LINE#         25
  C:2CCDH         LINE#         26
  C:2CCFH         LINE#         27
  C:2CD1H         LINE#         28
  C:2CD3H         LINE#         29
  C:2CD5H         LINE#         30
  C:2CD7H         LINE#         31
  C:2CD9H         LINE#         32
  C:2CDBH         LINE#         33
  -------         ENDPROC       INITSTC8A
  -------         PROC          MAIN
  -------         DO            
  D:0022H         SYMBOL        i
  D:0024H         SYMBOL        j
  -------         ENDDO         
  C:2CDCH         LINE#         37
  C:2CDCH         LINE#         38
BL51 BANKED LINKER/LOCATER V6.22.2.0                                                  03/08/2022  17:35:08  PAGE 7


  C:2CDCH         LINE#         50
  C:2CDFH         LINE#         52
  C:2CE2H         LINE#         54
  C:2CE7H         LINE#         56
  C:2CEAH         LINE#         57
  C:2CEDH         LINE#         58
  C:2CF6H         LINE#         61
  -------         ENDPROC       MAIN
  -------         ENDMOD        MAIN

  -------         MODULE        UART1
  C:0000H         SYMBOL        _ICE_DUMMY_
  D:0080H         PUBLIC        P0
  D:0090H         PUBLIC        P1
  D:00A0H         PUBLIC        P2
  D:00B0H         PUBLIC        P3
  D:00C0H         PUBLIC        P4
  D:00C8H         PUBLIC        P5
  D:00E8H         PUBLIC        P6
  D:00F8H         PUBLIC        P7
  D:00A8H         PUBLIC        IE
  D:00B8H         PUBLIC        IP
  B:0098H.1       PUBLIC        TI
  C:2D34H         PUBLIC        uart1_Initialization
  D:00D8H         PUBLIC        CCON
  D:0099H         PUBLIC        SBUF
  D:0098H         PUBLIC        SCON
  D:0089H         PUBLIC        TMOD
  D:0088H         PUBLIC        TCON
  D:008EH         PUBLIC        AUXR
  B:00A8H.3       PUBLIC        ET1
  D:008DH         PUBLIC        TH1
  D:008BH         PUBLIC        TL1
  B:0088H.6       PUBLIC        TR1
  D:00D0H         PUBLIC        PSW
  C:0003H         PUBLIC        _putchar
  -------         PROC          UART1_INITIALIZATION
  C:2D34H         LINE#         9
  C:2D34H         LINE#         10
  C:2D34H         LINE#         11
  C:2D37H         LINE#         12
  C:2D3AH         LINE#         13
  C:2D3DH         LINE#         14
  C:2D40H         LINE#         15
  C:2D43H         LINE#         16
  C:2D46H         LINE#         17
  C:2D48H         LINE#         18
  C:2D4AH         LINE#         20
  -------         ENDPROC       UART1_INITIALIZATION
  -------         PROC          _PUTCHAR
  D:0007H         SYMBOL        c
  C:0003H         LINE#         23
  C:0003H         LINE#         24
  C:0003H         LINE#         25
  C:0005H         LINE#         26
  C:0008H         LINE#         27
  C:000AH         LINE#         28
BL51 BANKED LINKER/LOCATER V6.22.2.0                                                  03/08/2022  17:35:08  PAGE 8


  C:000AH         LINE#         29
  -------         ENDPROC       _PUTCHAR
  -------         ENDMOD        UART1

  -------         MODULE        SPI
  C:0000H         SYMBOL        _ICE_DUMMY_
  D:0080H         PUBLIC        P0
  D:0090H         PUBLIC        P1
  D:00A0H         PUBLIC        P2
  D:00B0H         PUBLIC        P3
  D:00C0H         PUBLIC        P4
  D:00C8H         PUBLIC        P5
  D:00E8H         PUBLIC        P6
  C:2DEDH         PUBLIC        spi_disable
  D:00F8H         PUBLIC        P7
  D:00CEH         PUBLIC        SPCTL
  D:00A2H         PUBLIC        P_SW1
  D:00A8H         PUBLIC        IE
  C:2DBAH         PUBLIC        _spi_rw
  C:2DEAH         PUBLIC        spi_enable
  D:00B8H         PUBLIC        IP
  D:00D8H         PUBLIC        CCON
  D:0098H         PUBLIC        SCON
  D:0088H         PUBLIC        TCON
  D:00CDH         PUBLIC        SPSTAT
  B:00F8H.2       PUBLIC        SPI_CS
  C:2D9CH         PUBLIC        _spi_init
  D:00D0H         PUBLIC        PSW
  D:00CFH         PUBLIC        SPDAT
  -------         PROC          _SPI_INIT
  D:0007H         SYMBOL        speed
  C:2D9CH         LINE#         12
  C:2D9CH         LINE#         13
  C:2D9FH         LINE#         14
  C:2DA2H         LINE#         15
  C:2DA7H         LINE#         16
  C:2DAAH         LINE#         17
  -------         ENDPROC       _SPI_INIT
  -------         PROC          SPI_ENABLE
  C:2DEAH         LINE#         19
  C:2DEAH         LINE#         20
  C:2DECH         LINE#         21
  -------         ENDPROC       SPI_ENABLE
  -------         PROC          SPI_DISABLE
  C:2DEDH         LINE#         23
  C:2DEDH         LINE#         24
  C:2DEFH         LINE#         25
  -------         ENDPROC       SPI_DISABLE
  -------         PROC          _SPI_RW
  D:0007H         SYMBOL        val
  C:2DBAH         LINE#         27
  C:2DBAH         LINE#         28
  C:2DBCH         LINE#         29
  C:2DC2H         LINE#         30
  C:2DC5H         LINE#         31
  C:2DC7H         LINE#         32
  -------         ENDPROC       _SPI_RW
BL51 BANKED LINKER/LOCATER V6.22.2.0                                                  03/08/2022  17:35:08  PAGE 9


  -------         ENDMOD        SPI

  -------         MODULE        OLED13
  C:0000H         SYMBOL        _ICE_DUMMY_
  D:0080H         PUBLIC        P0
  D:0090H         PUBLIC        P1
  D:00A0H         PUBLIC        P2
  D:00B0H         PUBLIC        P3
  D:00C0H         PUBLIC        P4
  D:00C8H         PUBLIC        P5
  D:00E8H         PUBLIC        P6
  D:00F8H         PUBLIC        P7
  B:00C8H.2       PUBLIC        OLED_RESET
  B:00C8H.3       PUBLIC        OLED_DC
  D:00A8H         PUBLIC        IE
  C:2B0FH         SYMBOL        _oled_datas
  D:00B8H         PUBLIC        IP
  C:2DDBH         SYMBOL        oled_display_all
  C:2D61H         PUBLIC        _oled_data
  D:00D8H         PUBLIC        CCON
  D:0098H         PUBLIC        SCON
  C:2DF0H         PUBLIC        _oled_write_page
  D:0088H         PUBLIC        TCON
  C:2C8FH         PUBLIC        oled_init
  C:2D4BH         PUBLIC        _oled_command
  D:00D0H         PUBLIC        PSW
  -------         PROC          _OLED_COMMAND
  D:0028H         SYMBOL        cmd
  C:2D4BH         LINE#         7
  C:2D4DH         LINE#         8
  C:2D4FH         LINE#         9
  C:2D52H         LINE#         10
  C:2D57H         LINE#         11
  C:2D5AH         LINE#         12
  -------         ENDPROC       _OLED_COMMAND
  -------         PROC          _OLED_DATA
  D:000CH         SYMBOL        dat
  C:2D61H         LINE#         15
  C:2D63H         LINE#         16
  C:2D65H         LINE#         17
  C:2D68H         LINE#         18
  C:2D6DH         LINE#         19
  C:2D70H         LINE#         20
  -------         ENDPROC       _OLED_DATA
  -------         PROC          _OLED_DATAS
  D:0028H         SYMBOL        dat
  D:002BH         SYMBOL        len
  -------         DO            
  D:002DH         SYMBOL        i
  -------         ENDDO         
  C:2B0FH         LINE#         23
  C:2B19H         LINE#         24
  C:2B1EH         LINE#         25
  C:2B20H         LINE#         26
  C:2B23H         LINE#         27
  C:2B34H         LINE#         28
  C:2B49H         LINE#         29
BL51 BANKED LINKER/LOCATER V6.22.2.0                                                  03/08/2022  17:35:08  PAGE 10


  C:2B53H         LINE#         30
  C:2B56H         LINE#         31
  -------         ENDPROC       _OLED_DATAS
  -------         PROC          OLED_INIT
  C:2C8FH         LINE#         34
  C:2C8FH         LINE#         35
  C:2C91H         LINE#         36
  C:2C98H         LINE#         37
  C:2C9AH         LINE#         38
  C:2CA1H         LINE#         73
  C:2CA6H         LINE#         74
  C:2CABH         LINE#         75
  C:2CB0H         LINE#         76
  C:2CB5H         LINE#         77
  -------         ENDPROC       OLED_INIT
  -------         PROC          OLED_DISPLAY_ALL
  C:2DDBH         LINE#         98
  C:2DDBH         LINE#         99
  -------         ENDPROC       OLED_DISPLAY_ALL
  -------         PROC          _OLED_WRITE_PAGE
  D:0001H         SYMBOL        dat
  D:0004H         SYMBOL        len
  C:2DF0H         LINE#         102
  C:2DF0H         LINE#         103
  -------         ENDPROC       _OLED_WRITE_PAGE
  -------         ENDMOD        OLED13

  -------         MODULE        TIME
  C:0000H         SYMBOL        _ICE_DUMMY_
  D:0080H         PUBLIC        P0
  D:0090H         PUBLIC        P1
  D:00A0H         PUBLIC        P2
  D:00B0H         PUBLIC        P3
  D:00C0H         PUBLIC        P4
  C:2DC8H         SYMBOL        Delay1ms
  D:00C8H         PUBLIC        P5
  B:00A8H.7       PUBLIC        EA
  D:00E8H         PUBLIC        P6
  D:00F8H         PUBLIC        P7
  C:2DE0H         SYMBOL        Delay1us
  C:2D77H         PUBLIC        _time_HoggingDelayMs
  D:00A8H         PUBLIC        IE
  C:2B5DH         PUBLIC        _time_HoggingDelayUs
  D:00B8H         PUBLIC        IP
  C:274EH         PUBLIC        tick_Task
  C:2D19H         PUBLIC        timer0_ISR
  D:00D8H         PUBLIC        CCON
  X:0DD0H         SYMBOL        g_sys_ticks
  D:0098H         PUBLIC        SCON
  C:2DABH         PUBLIC        time_GetTicks
  D:0089H         PUBLIC        TMOD
  D:0088H         PUBLIC        TCON
  C:2DE5H         SYMBOL        Delay10us
  B:00A8H.1       PUBLIC        ET0
  B:0088H.5       PUBLIC        TF0
  D:008CH         PUBLIC        TH0
  D:008AH         PUBLIC        TL0
BL51 BANKED LINKER/LOCATER V6.22.2.0                                                  03/08/2022  17:35:08  PAGE 11


  B:0088H.4       PUBLIC        TR0
  C:2D8AH         PUBLIC        time_Initialization
  C:2DD2H         SYMBOL        Delay100us
  X:0DD4H         PUBLIC        g_high_timer
  D:00D0H         PUBLIC        PSW
  -------         PROC          TIME_INITIALIZATION
  C:2D8AH         LINE#         14
  C:2D8AH         LINE#         15
  C:2D8AH         LINE#         17
  C:2D92H         LINE#         18
  C:2D95H         LINE#         19
  C:2D97H         LINE#         20
  C:2D99H         LINE#         21
  C:2D9BH         LINE#         22
  -------         ENDPROC       TIME_INITIALIZATION
  -------         PROC          TIMER0_ISR
  C:2D19H         LINE#         24
  C:2D1FH         LINE#         26
  C:2D2DH         LINE#         27
  -------         ENDPROC       TIMER0_ISR
  -------         PROC          TICK_TASK
  -------         DO            
  I:000DH         SYMBOL        old_count
  D:0008H         SYMBOL        count
  D:0006H         SYMBOL        timer
  D:0003H         SYMBOL        th0
  D:0002H         SYMBOL        tl0
  I:0011H         SYMBOL        old_th0
  -------         ENDDO         
  C:274EH         LINE#         29
  C:274EH         LINE#         30
  C:274EH         LINE#         38
  C:2750H         LINE#         40
  C:2754H         LINE#         43
  C:2756H         LINE#         44
  C:275AH         LINE#         45
  C:275CH         LINE#         46
  C:275EH         LINE#         47
  C:2766H         LINE#         48
  C:276EH         LINE#         49
  C:2772H         LINE#         50
  C:2774H         LINE#         52
  C:277DH         LINE#         53
  C:278EH         LINE#         54
  C:2790H         LINE#         55
  C:2792H         LINE#         56
  C:2796H         LINE#         57
  C:27A8H         LINE#         59
  C:27BBH         LINE#         60
  C:27BBH         LINE#         61
  C:27C8H         LINE#         63
  C:27C8H         LINE#         68
  C:2824H         LINE#         72
  -------         ENDPROC       TICK_TASK
  -------         PROC          TIME_GETTICKS
  C:2DABH         LINE#         74
  C:2DABH         LINE#         75
BL51 BANKED LINKER/LOCATER V6.22.2.0                                                  03/08/2022  17:35:08  PAGE 12


  C:2DABH         LINE#         76
  C:2DB9H         LINE#         77
  -------         ENDPROC       TIME_GETTICKS
  -------         PROC          DELAY1US
  -------         DO            
  D:0007H         SYMBOL        i
  -------         ENDDO         
  C:2DE0H         LINE#         80
  C:2DE0H         LINE#         81
  C:2DE0H         LINE#         84
  C:2DE2H         LINE#         85
  C:2DE4H         LINE#         86
  -------         ENDPROC       DELAY1US
  -------         PROC          DELAY10US
  -------         DO            
  D:0007H         SYMBOL        i
  -------         ENDDO         
  C:2DE5H         LINE#         88
  C:2DE5H         LINE#         89
  C:2DE5H         LINE#         92
  C:2DE7H         LINE#         93
  C:2DE9H         LINE#         94
  -------         ENDPROC       DELAY10US
  -------         PROC          DELAY100US
  -------         DO            
  D:0007H         SYMBOL        i
  D:0006H         SYMBOL        j
  -------         ENDDO         
  C:2DD2H         LINE#         97
  C:2DD2H         LINE#         98
  C:2DD2H         LINE#         101
  C:2DD4H         LINE#         102
  C:2DD6H         LINE#         104
  C:2DD6H         LINE#         105
  C:2DD8H         LINE#         106
  C:2DDAH         LINE#         107
  -------         ENDPROC       DELAY100US
  -------         PROC          DELAY1MS
  -------         DO            
  D:0007H         SYMBOL        i
  D:0006H         SYMBOL        j
  -------         ENDDO         
  C:2DC8H         LINE#         110
  C:2DC8H         LINE#         111
  C:2DC8H         LINE#         114
  C:2DC9H         LINE#         115
  C:2DCBH         LINE#         116
  C:2DCDH         LINE#         118
  C:2DCDH         LINE#         119
  C:2DCFH         LINE#         120
  C:2DD1H         LINE#         121
  -------         ENDPROC       DELAY1MS
  -------         PROC          _TIME_HOGGINGDELAYMS
  D:0004H         SYMBOL        ms
  C:2D77H         LINE#         123
  C:2D7BH         LINE#         124
  C:2D7BH         LINE#         125
BL51 BANKED LINKER/LOCATER V6.22.2.0                                                  03/08/2022  17:35:08  PAGE 13


  C:2D7FH         LINE#         126
  C:2D7FH         LINE#         127
  C:2D82H         LINE#         128
  C:2D89H         LINE#         129
  -------         ENDPROC       _TIME_HOGGINGDELAYMS
  -------         PROC          _TIME_HOGGINGDELAYUS
  D:0004H         SYMBOL        us
  C:2B5DH         LINE#         131
  C:2B61H         LINE#         132
  C:2B61H         LINE#         133
  C:2B77H         LINE#         134
  C:2B8DH         LINE#         135
  C:2BA0H         LINE#         136
  -------         ENDPROC       _TIME_HOGGINGDELAYUS
  -------         ENDMOD        TIME

  -------         MODULE        OLED
  C:0000H         SYMBOL        _ICE_DUMMY_
  D:0080H         PUBLIC        P0
  D:0090H         PUBLIC        P1
  D:00A0H         PUBLIC        P2
  D:00B0H         PUBLIC        P3
  D:00C0H         PUBLIC        P4
  D:00C8H         PUBLIC        P5
  D:00E8H         PUBLIC        P6
  D:00F8H         PUBLIC        P7
  D:00A8H         PUBLIC        IE
  C:00E7H         PUBLIC        gImage_a
  C:04E7H         PUBLIC        gImage_b
  C:0867H         PUBLIC        gImage_c
  D:00B8H         PUBLIC        IP
  C:2C55H         PUBLIC        oled_clear_gram
  D:00D8H         PUBLIC        CCON
  X:0000H         SYMBOL        OLED_GRAM
  C:266FH         PUBLIC        _oled_draw_from_bitmap
  D:0098H         PUBLIC        SCON
  D:0088H         PUBLIC        TCON
  C:211CH         PUBLIC        _oled_draw_char
  C:2C1AH         PUBLIC        oled_fill_gram
  C:2A5BH         PUBLIC        _oled_draw_xline
  C:28C3H         PUBLIC        _oled_draw_yline
  C:29E6H         PUBLIC        _oled_fill_rect
  C:250BH         PUBLIC        _oled_draw_line
  C:2DF3H         PUBLIC        _oled_draw_point
  C:2959H         PUBLIC        _oled_draw_rect
  C:2319H         PUBLIC        oled_test
  X:0420H         PUBLIC        Font16_Table
  X:05D0H         PUBLIC        Font64_Table
  C:2BDEH         PUBLIC        oled_show_gram
  C:2CFDH         PUBLIC        _ABS
  C:2ABAH         PUBLIC        _oled_set_pixel
  X:09D0H         PUBLIC        Cn32_Table
  D:00D0H         PUBLIC        PSW
  -------         PROC          _ABS
  D:0004H         SYMBOL        n
  -------         DO            
  D:0006H         SYMBOL        tmp
BL51 BANKED LINKER/LOCATER V6.22.2.0                                                  03/08/2022  17:35:08  PAGE 14


  -------         ENDDO         
  C:2CFDH         LINE#         13
  C:2D01H         LINE#         14
  C:2D0DH         LINE#         15
  C:2D18H         LINE#         16
  -------         ENDPROC       _ABS
  -------         PROC          OLED_FILL_GRAM
  -------         DO            
  D:0007H         SYMBOL        i
  D:0006H         SYMBOL        j
  -------         ENDDO         
  C:2C1AH         LINE#         18
  C:2C1AH         LINE#         20
  C:2C26H         LINE#         21
  C:2C32H         LINE#         22
  C:2C4EH         LINE#         23
  C:2C51H         LINE#         24
  C:2C54H         LINE#         25
  -------         ENDPROC       OLED_FILL_GRAM
  -------         PROC          OLED_CLEAR_GRAM
  -------         DO            
  D:0007H         SYMBOL        i
  D:0006H         SYMBOL        j
  -------         ENDDO         
  C:2C55H         LINE#         27
  C:2C55H         LINE#         29
  C:2C61H         LINE#         30
  C:2C6DH         LINE#         31
  C:2C88H         LINE#         32
  C:2C8BH         LINE#         33
  C:2C8EH         LINE#         34
  -------         ENDPROC       OLED_CLEAR_GRAM
  -------         PROC          OLED_SHOW_GRAM
  -------         DO            
  D:0026H         SYMBOL        i
  D:0027H         SYMBOL        j
  -------         ENDDO         
  C:2BDEH         LINE#         36
  C:2BDEH         LINE#         46
  C:2BECH         LINE#         47
  C:2BF4H         LINE#         48
  C:2BF9H         LINE#         49
  C:2BFEH         LINE#         50
  C:2C15H         LINE#         51
  C:2C19H         LINE#         53
  -------         ENDPROC       OLED_SHOW_GRAM
  -------         PROC          _OLED_SET_PIXEL
  D:003EH         SYMBOL        x
  D:003FH         SYMBOL        y
  C:2ABAH         LINE#         55
  C:2ABEH         LINE#         56
  C:2AD2H         LINE#         57
  C:2ADBH         LINE#         59
  C:2ADBH         LINE#         62
  C:2B0EH         LINE#         63
  -------         ENDPROC       _OLED_SET_PIXEL
  -------         PROC          _OLED_DRAW_POINT
BL51 BANKED LINKER/LOCATER V6.22.2.0                                                  03/08/2022  17:35:08  PAGE 15


  D:0007H         SYMBOL        x
  D:0005H         SYMBOL        y
  C:2DF3H         LINE#         65
  C:2DF3H         LINE#         66
  -------         ENDPROC       _OLED_DRAW_POINT
  -------         PROC          _OLED_DRAW_XLINE
  D:002BH         SYMBOL        x
  D:002CH         SYMBOL        y
  D:002DH         SYMBOL        w
  -------         DO            
  D:002EH         SYMBOL        i
  -------         ENDDO         
  C:2A5BH         LINE#         69
  C:2A61H         LINE#         71
  C:2A7FH         LINE#         72
  C:2A88H         LINE#         74
  C:2A88H         LINE#         76
  C:2A9BH         LINE#         77
  C:2AA1H         LINE#         78
  C:2AA1H         LINE#         80
  C:2AABH         LINE#         81
  C:2AB5H         LINE#         82
  C:2AB9H         LINE#         83
  -------         ENDPROC       _OLED_DRAW_XLINE
  -------         PROC          L?0113
  -------         ENDPROC       L?0113
  -------         PROC          _OLED_DRAW_YLINE
  D:002AH         SYMBOL        x
  D:002BH         SYMBOL        y
  D:002CH         SYMBOL        h
  -------         DO            
  D:002DH         SYMBOL        i
  -------         ENDDO         
  C:28C3H         LINE#         85
  C:28C9H         LINE#         87
  C:28DBH         LINE#         88
  C:28FAH         LINE#         89
  C:2903H         LINE#         91
  C:2903H         LINE#         93
  C:2915H         LINE#         94
  C:2928H         LINE#         95
  C:292EH         LINE#         96
  C:292EH         LINE#         97
  C:2940H         LINE#         98
  C:294AH         LINE#         99
  C:2954H         LINE#         100
  C:2958H         LINE#         101
  -------         ENDPROC       _OLED_DRAW_YLINE
  -------         PROC          _OLED_DRAW_LINE
  D:0026H         SYMBOL        x1
  D:0027H         SYMBOL        y1
  D:0028H         SYMBOL        x2
  D:0029H         SYMBOL        y2
  -------         DO            
  D:0001H         SYMBOL        dx
  D:002AH         SYMBOL        dy
  D:002BH         SYMBOL        n
BL51 BANKED LINKER/LOCATER V6.22.2.0                                                  03/08/2022  17:35:08  PAGE 16


  D:002CH         SYMBOL        k
  D:002DH         SYMBOL        xinc
  D:0031H         SYMBOL        yinc
  D:0035H         SYMBOL        x
  D:0039H         SYMBOL        y
  D:003DH         SYMBOL        dotten_len
  -------         ENDDO         
  C:250BH         LINE#         103
  C:2511H         LINE#         107
  C:2539H         LINE#         108
  C:2542H         LINE#         110
  C:2542H         LINE#         112
  C:2548H         LINE#         113
  C:254FH         LINE#         115
  C:256DH         LINE#         116
  C:2571H         LINE#         118
  C:257AH         LINE#         120
  C:25ABH         LINE#         121
  C:25DAH         LINE#         123
  C:25E8H         LINE#         124
  C:25F6H         LINE#         125
  C:2600H         LINE#         126
  C:2631H         LINE#         127
  C:264CH         LINE#         128
  C:2667H         LINE#         129
  C:266BH         LINE#         130
  -------         ENDPROC       _OLED_DRAW_LINE
  -------         PROC          _OLED_DRAW_RECT
  D:0026H         SYMBOL        x
  D:0027H         SYMBOL        y
  D:0028H         SYMBOL        w
  D:0029H         SYMBOL        h
  C:2959H         LINE#         132
  C:295FH         LINE#         133
  C:29B2H         LINE#         135
  C:29B2H         LINE#         136
  C:29BBH         LINE#         138
  C:29BBH         LINE#         140
  C:29C4H         LINE#         141
  C:29D0H         LINE#         142
  C:29D9H         LINE#         143
  C:29E5H         LINE#         144
  -------         ENDPROC       _OLED_DRAW_RECT
  -------         PROC          _OLED_FILL_RECT
  D:0026H         SYMBOL        x
  D:0027H         SYMBOL        y
  D:0028H         SYMBOL        w
  D:0029H         SYMBOL        h
  -------         DO            
  D:002AH         SYMBOL        i
  -------         ENDDO         
  C:29E6H         LINE#         146
  C:29ECH         LINE#         147
  C:29EFH         LINE#         148
  C:2A2CH         LINE#         149
  C:2A35H         LINE#         151
  C:2A35H         LINE#         153
BL51 BANKED LINKER/LOCATER V6.22.2.0                                                  03/08/2022  17:35:08  PAGE 17


  C:2A4AH         LINE#         154
  C:2A56H         LINE#         155
  C:2A5AH         LINE#         156
  -------         ENDPROC       _OLED_FILL_RECT
  -------         PROC          L?0114
  -------         ENDPROC       L?0114
  -------         PROC          _OLED_DRAW_FROM_BITMAP
  D:0026H         SYMBOL        x
  D:0027H         SYMBOL        y
  D:0028H         SYMBOL        width
  D:0029H         SYMBOL        height
  D:002AH         SYMBOL        dat
  -------         DO            
  D:002DH         SYMBOL        i
  D:002EH         SYMBOL        j
  D:002FH         SYMBOL        w
  D:0030H         SYMBOL        h
  D:0031H         SYMBOL        p
  -------         ENDDO         
  C:266FH         LINE#         158
  C:2675H         LINE#         160
  C:2689H         LINE#         161
  C:268BH         LINE#         163
  C:268BH         LINE#         165
  C:26A0H         LINE#         166
  C:26A9H         LINE#         168
  C:26A9H         LINE#         170
  C:26ACH         LINE#         171
  C:26AFH         LINE#         173
  C:26C2H         LINE#         174
  C:26C8H         LINE#         175
  C:26C8H         LINE#         177
  C:26DBH         LINE#         178
  C:26E1H         LINE#         179
  C:26E1H         LINE#         181
  C:26F5H         LINE#         184
  C:26FFH         LINE#         185
  C:2709H         LINE#         186
  C:2738H         LINE#         187
  C:2745H         LINE#         188
  C:2745H         LINE#         189
  C:2749H         LINE#         190
  C:274DH         LINE#         209
  -------         ENDPROC       _OLED_DRAW_FROM_BITMAP
  -------         PROC          _OLED_DRAW_CHAR
  D:0026H         SYMBOL        x
  D:0027H         SYMBOL        y
  D:0028H         SYMBOL        w
  D:0029H         SYMBOL        h
  D:002AH         SYMBOL        sz
  -------         DO            
  D:002BH         SYMBOL        i
  D:002DH         SYMBOL        j
  D:002FH         SYMBOL        px
  D:0031H         SYMBOL        py
  D:0033H         SYMBOL        k
  D:0035H         SYMBOL        p
BL51 BANKED LINKER/LOCATER V6.22.2.0                                                  03/08/2022  17:35:08  PAGE 18


  D:0038H         SYMBOL        fc
  D:003AH         SYMBOL        l
  -------         ENDDO         
  C:211CH         LINE#         211
  C:2122H         LINE#         215
  C:2172H         LINE#         216
  C:2172H         LINE#         217
  C:217BH         LINE#         219
  C:217BH         LINE#         221
  C:2184H         LINE#         222
  C:2195H         LINE#         223
  C:219DH         LINE#         224
  C:21B5H         LINE#         225
  C:21B7H         LINE#         226
  C:21D6H         LINE#         227
  C:21D6H         LINE#         230
  C:21EFH         LINE#         231
  C:21F8H         LINE#         232
  C:220AH         LINE#         233
  C:2212H         LINE#         234
  C:2228H         LINE#         235
  C:222AH         LINE#         236
  C:223FH         LINE#         237
  C:223FH         LINE#         239
  C:2257H         LINE#         240
  C:226DH         LINE#         242
  C:2282H         LINE#         243
  C:22B1H         LINE#         244
  C:22F0H         LINE#         245
  C:22F7H         LINE#         246
  C:22F7H         LINE#         247
  C:2302H         LINE#         248
  C:230DH         LINE#         249
  C:2318H         LINE#         250
  -------         ENDPROC       _OLED_DRAW_CHAR
  -------         PROC          OLED_TEST
  C:2319H         LINE#         253
  C:2319H         LINE#         254
  C:2320H         LINE#         255
  C:2323H         LINE#         256
  C:232AH         LINE#         257
  C:232DH         LINE#         258
  C:2330H         LINE#         259
  C:2337H         LINE#         260
  C:233AH         LINE#         261
  C:2342H         LINE#         262
  C:234BH         LINE#         263
  C:2354H         LINE#         264
  C:235DH         LINE#         265
  C:2366H         LINE#         266
  C:236FH         LINE#         267
  C:2378H         LINE#         268
  C:2381H         LINE#         269
  C:2384H         LINE#         270
  C:238BH         LINE#         271
  C:238EH         LINE#         272
  C:2397H         LINE#         273
BL51 BANKED LINKER/LOCATER V6.22.2.0                                                  03/08/2022  17:35:08  PAGE 19


  C:23A0H         LINE#         274
  C:23A9H         LINE#         275
  C:23B2H         LINE#         276
  C:23BBH         LINE#         277
  C:23C4H         LINE#         278
  C:23CDH         LINE#         279
  C:23D6H         LINE#         280
  C:23DBH         LINE#         281
  C:23E0H         LINE#         282
  C:23E9H         LINE#         283
  C:23F2H         LINE#         284
  C:23FBH         LINE#         285
  C:23FEH         LINE#         286
  C:2405H         LINE#         287
  C:2408H         LINE#         288
  C:2414H         LINE#         289
  C:2420H         LINE#         290
  C:2423H         LINE#         291
  C:242AH         LINE#         292
  C:242DH         LINE#         293
  C:2439H         LINE#         294
  C:243CH         LINE#         295
  C:2443H         LINE#         296
  C:2446H         LINE#         297
  C:2452H         LINE#         298
  C:2455H         LINE#         299
  C:245CH         LINE#         300
  C:245FH         LINE#         301
  C:2470H         LINE#         302
  C:2473H         LINE#         303
  C:247AH         LINE#         304
  C:247DH         LINE#         305
  C:248EH         LINE#         306
  C:2491H         LINE#         307
  C:2498H         LINE#         308
  C:249BH         LINE#         309
  C:24AFH         LINE#         310
  C:24B2H         LINE#         311
  C:24B9H         LINE#         312
  C:24BCH         LINE#         313
  C:24CAH         LINE#         314
  C:24CDH         LINE#         315
  C:24D4H         LINE#         316
  C:24D7H         LINE#         317
  C:24E5H         LINE#         318
  C:24E8H         LINE#         319
  C:24EFH         LINE#         320
  C:24F2H         LINE#         321
  C:2501H         LINE#         322
  C:2504H         LINE#         323
  -------         ENDPROC       OLED_TEST
  -------         ENDMOD        OLED

  -------         MODULE        ?C?FPADD
  C:161BH         PUBLIC        ?C?FPADD
  C:1617H         PUBLIC        ?C?FPSUB
  -------         ENDMOD        ?C?FPADD
BL51 BANKED LINKER/LOCATER V6.22.2.0                                                  03/08/2022  17:35:08  PAGE 20



  -------         MODULE        ?C?FPDIV
  C:170FH         PUBLIC        ?C?FPDIV
  -------         ENDMOD        ?C?FPDIV

  -------         MODULE        ?C?FCAST
  C:17B6H         PUBLIC        ?C?FCASTC
  C:17B1H         PUBLIC        ?C?FCASTI
  C:17ACH         PUBLIC        ?C?FCASTL
  -------         ENDMOD        ?C?FCAST

  -------         MODULE        ?C?CASTF
  C:17EAH         PUBLIC        ?C?CASTF
  -------         ENDMOD        ?C?CASTF

  -------         MODULE        PRINTF
  D:0040H         PUBLIC        ?_PRINTF?BYTE
  D:0040H         PUBLIC        ?_SPRINTF?BYTE
  C:1D0FH         PUBLIC        _PRINTF
  C:1D09H         PUBLIC        _SPRINTF
  -------         ENDMOD        PRINTF

  -------         MODULE        ?C?FPROUND
  C:186BH         PUBLIC        ?C?FPROUND
  -------         ENDMOD        ?C?FPROUND

  -------         MODULE        ?C?FPCONVERT
  C:189AH         PUBLIC        ?C?FPCONVERT
  -------         ENDMOD        ?C?FPCONVERT

  -------         MODULE        ?C?FPMUL
  C:199DH         PUBLIC        ?C?FPMUL
  -------         ENDMOD        ?C?FPMUL

  -------         MODULE        ?C?FTNPWR
  C:1AD3H         PUBLIC        ?C?FTNPWR
  -------         ENDMOD        ?C?FTNPWR

  -------         MODULE        ?C?CLDPTR
  C:1B13H         PUBLIC        ?C?CLDPTR
  -------         ENDMOD        ?C?CLDPTR

  -------         MODULE        ?C?CLDOPTR
  C:1B2CH         PUBLIC        ?C?CLDOPTR
  -------         ENDMOD        ?C?CLDOPTR

  -------         MODULE        ?C?CSTPTR
  C:1B59H         PUBLIC        ?C?CSTPTR
  -------         ENDMOD        ?C?CSTPTR

  -------         MODULE        ?C?IMUL
  C:1B6BH         PUBLIC        ?C?IMUL
  -------         ENDMOD        ?C?IMUL

  -------         MODULE        ?C?UIDIV
  C:1B7DH         PUBLIC        ?C?UIDIV
  -------         ENDMOD        ?C?UIDIV
BL51 BANKED LINKER/LOCATER V6.22.2.0                                                  03/08/2022  17:35:08  PAGE 21



  -------         MODULE        ?C?SIDIV
  C:1BD2H         PUBLIC        ?C?SIDIV
  -------         ENDMOD        ?C?SIDIV

  -------         MODULE        ?C?LNEG
  C:1C08H         PUBLIC        ?C?LNEG
  -------         ENDMOD        ?C?LNEG

  -------         MODULE        ?C?ULCMP
  C:1C16H         PUBLIC        ?C?ULCMP
  -------         ENDMOD        ?C?ULCMP

  -------         MODULE        ?C?LSHL
  C:1C27H         PUBLIC        ?C?LSHL
  -------         ENDMOD        ?C?LSHL

  -------         MODULE        ?C?LLDIDATA
  C:1C3AH         PUBLIC        ?C?LLDIDATA
  -------         ENDMOD        ?C?LLDIDATA

  -------         MODULE        ?C?LLDIDATA0
  C:1C46H         PUBLIC        ?C?LLDIDATA0
  -------         ENDMOD        ?C?LLDIDATA0

  -------         MODULE        ?C?LSTIDATA
  C:1C53H         PUBLIC        ?C?LSTIDATA
  -------         ENDMOD        ?C?LSTIDATA

  -------         MODULE        ?C?LSTXDATA
  C:1C5FH         PUBLIC        ?C?LSTXDATA
  -------         ENDMOD        ?C?LSTXDATA

  -------         MODULE        ?C?OFFXADD
  C:1C6BH         PUBLIC        ?C?OFFXADD
  -------         ENDMOD        ?C?OFFXADD

  -------         MODULE        ?C?PLDIIDATA
  C:1C77H         PUBLIC        ?C?PLDIIDATA
  -------         ENDMOD        ?C?PLDIIDATA

  -------         MODULE        ?C?CCASE
  C:1C87H         PUBLIC        ?C?CCASE
  -------         ENDMOD        ?C?CCASE

*** WARNING L16: UNCALLED SEGMENT, IGNORED FOR OVERLAY PROCESS
    SEGMENT: ?PR?_OLED_DATA?OLED13

*** WARNING L16: UNCALLED SEGMENT, IGNORED FOR OVERLAY PROCESS
    SEGMENT: ?PR?OLED_DISPLAY_ALL?OLED13

*** WARNING L16: UNCALLED SEGMENT, IGNORED FOR OVERLAY PROCESS
    SEGMENT: ?PR?TIME_INITIALIZATION?TIME

*** WARNING L16: UNCALLED SEGMENT, IGNORED FOR OVERLAY PROCESS
    SEGMENT: ?PR?TICK_TASK?TIME

BL51 BANKED LINKER/LOCATER V6.22.2.0                                                  03/08/2022  17:35:08  PAGE 22


*** WARNING L16: UNCALLED SEGMENT, IGNORED FOR OVERLAY PROCESS
    SEGMENT: ?PR?TIME_GETTICKS?TIME

Program Size: data=78.1 xdata=3542 code=11766
LINK/LOCATE RUN COMPLETE.  5 WARNING(S),  0 ERROR(S)
